(dp0
VpendingRemovesSet
p1
c__builtin__
set
p2
((lp3
tp4
Rp5
sVpendingInstallsSet
p6
g2
((lp7
Vaddonupdater
p8
atp9
Rp10
sVdisabledAddons
p11
g2
((lp12
Vremote
p13
atp14
Rp15
sVpendingEnableSet
p16
g2
((lp17
tp18
Rp19
sVpendingDisableSet
p20
g2
((lp21
tp22
Rp23
sVoverrideCompatibility
p24
g2
((lp25
tp26
Rp27
sVblocked
p28
g2
((lp29
tp30
Rp31
s.