(dp0
VpendingRemovesSet
p1
c__builtin__
set
p2
((lp3
Vtelenvda
p4
atp5
Rp6
sVpendingInstallsSet
p7
g2
((lp8
Vaddonupdater
p9
aVtelenvda
p10
atp11
Rp12
sVdisabledAddons
p13
g2
((lp14
Vremote
p15
atp16
Rp17
sVpendingEnableSet
p18
g2
((lp19
tp20
Rp21
sVpendingDisableSet
p22
g2
((lp23
tp24
Rp25
sVoverrideCompatibility
p26
g2
((lp27
tp28
Rp29
sVblocked
p30
g2
((lp31
tp32
Rp33
s.