(dp0
VpendingRemovesSet
p1
c__builtin__
set
p2
((lp3
tp4
Rp5
sVpendingInstallsSet
p6
g2
((lp7
tp8
Rp9
sVdisabledAddons
p10
g2
((lp11
Vremote
p12
atp13
Rp14
sVpendingEnableSet
p15
g2
((lp16
tp17
Rp18
sVpendingDisableSet
p19
g2
((lp20
tp21
Rp22
sVoverrideCompatibility
p23
g2
((lp24
tp25
Rp26
sVblocked
p27
g2
((lp28
tp29
Rp30
sVPENDING_OVERRIDE_COMPATIBILITY
p31
g2
((lp32
tp33
Rp34
sVbackCompatToAPIVersion
p35
(I2024
I1
I0
tp36
s.