(dp0
VautoUpdate
p1
I01
sVupdateNotification
p2
Vtoast
p3
sVlastChecked
p4
F1687888561.0274606
sVnoUpdates
p5
(lp6
sVdevUpdates
p7
(lp8
sVlegacyAddonsFound
p9
c__builtin__
set
p10
((lp11
tp12
Rp13
sVbackgroundUpdate
p14
I00
sVaddonStoreNotificationShown
p15
I00
sVupdateSource
p16
Vaddondatastore
p17
sVdevUpdateChannels
p18
(dp19
s.