(dp0
VlastCheck
p1
F1642428956.23266
sVdontRemindVersion
p2
V2021.3.1
p3
sVpendingUpdateFile
p4
NsVpendingUpdateVersion
p5
NsVpendingUpdateAPIVersion
p6
(I0
I0
I0
tp7
sVpendingUpdateBackCompatToAPIVersion
p8
g7
s.