(dp0
VlastCheck
p1
F1724171404.577259
sVdontRemindVersion
p2
V2024.3
p3
sVpendingUpdateFile
p4
NsVpendingUpdateVersion
p5
NsVpendingUpdateAPIVersion
p6
(I0
I0
I0
tp7
sVpendingUpdateBackCompatToAPIVersion
p8
g7
s.