(dp0
VlastCheck
p1
F1741918892.9757013
sVdontRemindVersion
p2
V2024.4.2
p3
sVpendingUpdateFile
p4
NsVpendingUpdateVersion
p5
NsVpendingUpdateAPIVersion
p6
(I0
I0
I0
tp7
sVpendingUpdateBackCompatToAPIVersion
p8
g7
sVid
p9
Vc91735066d674e9d803ccbe1266fc9fc
p10
s.