(dp0
VlastCheck
p1
F1728365545.3248985
sVdontRemindVersion
p2
V2024.3.1
p3
sVpendingUpdateFile
p4
NsVpendingUpdateVersion
p5
NsVpendingUpdateAPIVersion
p6
(I0
I0
I0
tp7
sVpendingUpdateBackCompatToAPIVersion
p8
g7
sVid
p9
V1b78f94b15fc4e608a0748fc068bda85
p10
s.