(dp0
VlastCheck
p1
F1775983359.8087661
sVdontRemindVersion
p2
V2025.3.3
p3
sVpendingUpdateFile
p4
NsVpendingUpdateVersion
p5
NsVpendingUpdateAPIVersion
p6
(I0
I0
I0
tp7
sVpendingUpdateBackCompatToAPIVersion
p8
g7
sVid
p9
Vd4d387fb448542d79c3f1d52bfd17dc9
p10
s.